target datalayout = "e-m:e-p270:32:32-p271:32:32-p272:64:64-i64:64-i128:128-f80:128-n8:16:32:64-S128"
target triple = "x86_64-unknown-linux-gnu"

%struct.UString = type { ptr, i32, i32 }
%struct.ParseState = type { [4 x %struct.Lookahead], i32, ptr, ptr, ptr, i32, ptr, i32, ptr, i8, i8, i8 }
%struct.Lookahead = type { i32, %struct.UString, %struct.UString, i32 }

@tokenNames = dso_local global [7 x ptr] [ptr @.str, ptr @.str.1, ptr @.str.2, ptr @.str.3, ptr @.str.4, ptr @.str.5, ptr @.str.6], align 16
@.str.29 = private unnamed_addr constant [7 x i8] c"(null)\00", align 1
@.str.43 = private unnamed_addr constant [19 x i8] c"unterminated table\00", align 1
@.str.133 = private unnamed_addr constant [31 x i8] c" parsing table %s at line %i \0A\00", align 1
@.str.134 = private unnamed_addr constant [24 x i8] c"Encountered empty table\00", align 1
@.str.135 = private unnamed_addr constant [20 x i8] c"unexpected token %s\00", align 1
@.str.136 = private unnamed_addr constant [45 x i8] c"invariant characters required for table keys\00", align 1
@.str.137 = private unnamed_addr constant [44 x i8] c"parse error. Stopped parsing tokens with %s\00", align 1
@.str.138 = private unnamed_addr constant [46 x i8] c"parse error. Stopped parsing resource with %s\00", align 1
@.str.139 = private unnamed_addr constant [43 x i8] c"parse error. Stopped parsing table with %s\00", align 1

; Function Attrs: mustprogress nounwind uwtable
define internal noundef signext i8 @_ZL9U_FAILURE10UErrorCode(i32 noundef %code) #0 {
entry:
  %code.addr = alloca i32, align 4
  store i32 %code, ptr %code.addr, align 4
  %0 = load i32, ptr %code.addr, align 4
  %cmp = icmp sgt i32 %0, 0
  %conv = zext i1 %cmp to i8
  ret i8 %conv
}

; Function Attrs: mustprogress uwtable
define internal noundef i32 @_ZL8getTokenP10ParseStatePP7UStringS2_PjP10UErrorCode(ptr noundef %state, ptr noundef %tokenValue, ptr noundef %comment, ptr noundef %linenumber, ptr noundef %status) #1 {
entry:
  %state.addr = alloca ptr, align 8
  %tokenValue.addr = alloca ptr, align 8
  %comment.addr = alloca ptr, align 8
  %linenumber.addr = alloca ptr, align 8
  %status.addr = alloca ptr, align 8
  %result = alloca i32, align 4
  %i = alloca i32, align 4
  store ptr %state, ptr %state.addr, align 8
  store ptr %tokenValue, ptr %tokenValue.addr, align 8
  store ptr %comment, ptr %comment.addr, align 8
  store ptr %linenumber, ptr %linenumber.addr, align 8
  store ptr %status, ptr %status.addr, align 8
  %0 = load ptr, ptr %state.addr, align 8
  %lookahead = getelementptr inbounds %struct.ParseState, ptr %0, i32 0, i32 0
  %1 = load ptr, ptr %state.addr, align 8
  %lookaheadPosition = getelementptr inbounds %struct.ParseState, ptr %1, i32 0, i32 1
  %2 = load i32, ptr %lookaheadPosition, align 8
  %idxprom = zext i32 %2 to i64
  %arrayidx = getelementptr inbounds [4 x %struct.Lookahead], ptr %lookahead, i64 0, i64 %idxprom
  %type = getelementptr inbounds %struct.Lookahead, ptr %arrayidx, i32 0, i32 0
  %3 = load i32, ptr %type, align 8
  store i32 %3, ptr %result, align 4
  %4 = load ptr, ptr %tokenValue.addr, align 8
  %cmp = icmp ne ptr %4, null
  br i1 %cmp, label %if.then, label %if.end

if.then:                                          ; preds = %entry
  %5 = load ptr, ptr %state.addr, align 8
  %lookahead1 = getelementptr inbounds %struct.ParseState, ptr %5, i32 0, i32 0
  %6 = load ptr, ptr %state.addr, align 8
  %lookaheadPosition2 = getelementptr inbounds %struct.ParseState, ptr %6, i32 0, i32 1
  %7 = load i32, ptr %lookaheadPosition2, align 8
  %idxprom3 = zext i32 %7 to i64
  %arrayidx4 = getelementptr inbounds [4 x %struct.Lookahead], ptr %lookahead1, i64 0, i64 %idxprom3
  %value = getelementptr inbounds %struct.Lookahead, ptr %arrayidx4, i32 0, i32 1
  %8 = load ptr, ptr %tokenValue.addr, align 8
  store ptr %value, ptr %8, align 8
  br label %if.end

if.end:                                           ; preds = %if.then, %entry
  %9 = load ptr, ptr %linenumber.addr, align 8
  %cmp5 = icmp ne ptr %9, null
  br i1 %cmp5, label %if.then6, label %if.end11

if.then6:                                         ; preds = %if.end
  %10 = load ptr, ptr %state.addr, align 8
  %lookahead7 = getelementptr inbounds %struct.ParseState, ptr %10, i32 0, i32 0
  %11 = load ptr, ptr %state.addr, align 8
  %lookaheadPosition8 = getelementptr inbounds %struct.ParseState, ptr %11, i32 0, i32 1
  %12 = load i32, ptr %lookaheadPosition8, align 8
  %idxprom9 = zext i32 %12 to i64
  %arrayidx10 = getelementptr inbounds [4 x %struct.Lookahead], ptr %lookahead7, i64 0, i64 %idxprom9
  %line = getelementptr inbounds %struct.Lookahead, ptr %arrayidx10, i32 0, i32 3
  %13 = load i32, ptr %line, align 8
  %14 = load ptr, ptr %linenumber.addr, align 8
  store i32 %13, ptr %14, align 4
  br label %if.end11

if.end11:                                         ; preds = %if.then6, %if.end
  %15 = load ptr, ptr %comment.addr, align 8
  %cmp12 = icmp ne ptr %15, null
  br i1 %cmp12, label %if.then13, label %if.end19

if.then13:                                        ; preds = %if.end11
  %16 = load ptr, ptr %comment.addr, align 8
  %17 = load ptr, ptr %state.addr, align 8
  %lookahead14 = getelementptr inbounds %struct.ParseState, ptr %17, i32 0, i32 0
  %18 = load ptr, ptr %state.addr, align 8
  %lookaheadPosition15 = getelementptr inbounds %struct.ParseState, ptr %18, i32 0, i32 1
  %19 = load i32, ptr %lookaheadPosition15, align 8
  %idxprom16 = zext i32 %19 to i64
  %arrayidx17 = getelementptr inbounds [4 x %struct.Lookahead], ptr %lookahead14, i64 0, i64 %idxprom16
  %comment18 = getelementptr inbounds %struct.Lookahead, ptr %arrayidx17, i32 0, i32 2
  %20 = load ptr, ptr %status.addr, align 8
  call void @ustr_cpy(ptr noundef %16, ptr noundef %comment18, ptr noundef %20)
  br label %if.end19

if.end19:                                         ; preds = %if.then13, %if.end11
  %21 = load ptr, ptr %state.addr, align 8
  %lookaheadPosition20 = getelementptr inbounds %struct.ParseState, ptr %21, i32 0, i32 1
  %22 = load i32, ptr %lookaheadPosition20, align 8
  %add = add i32 %22, 3
  %rem = urem i32 %add, 4
  store i32 %rem, ptr %i, align 4
  %23 = load ptr, ptr %state.addr, align 8
  %lookaheadPosition21 = getelementptr inbounds %struct.ParseState, ptr %23, i32 0, i32 1
  %24 = load i32, ptr %lookaheadPosition21, align 8
  %add22 = add i32 %24, 1
  %rem23 = urem i32 %add22, 4
  %25 = load ptr, ptr %state.addr, align 8
  %lookaheadPosition24 = getelementptr inbounds %struct.ParseState, ptr %25, i32 0, i32 1
  store i32 %rem23, ptr %lookaheadPosition24, align 8
  %26 = load ptr, ptr %state.addr, align 8
  %lookahead25 = getelementptr inbounds %struct.ParseState, ptr %26, i32 0, i32 0
  %27 = load i32, ptr %i, align 4
  %idxprom26 = zext i32 %27 to i64
  %arrayidx27 = getelementptr inbounds [4 x %struct.Lookahead], ptr %lookahead25, i64 0, i64 %idxprom26
  %comment28 = getelementptr inbounds %struct.Lookahead, ptr %arrayidx27, i32 0, i32 2
  %28 = load ptr, ptr %status.addr, align 8
  call void @ustr_setlen(ptr noundef %comment28, i32 noundef 0, ptr noundef %28)
  %29 = load ptr, ptr %state.addr, align 8
  %lookahead29 = getelementptr inbounds %struct.ParseState, ptr %29, i32 0, i32 0
  %30 = load i32, ptr %i, align 4
  %idxprom30 = zext i32 %30 to i64
  %arrayidx31 = getelementptr inbounds [4 x %struct.Lookahead], ptr %lookahead29, i64 0, i64 %idxprom30
  %value32 = getelementptr inbounds %struct.Lookahead, ptr %arrayidx31, i32 0, i32 1
  %31 = load ptr, ptr %status.addr, align 8
  call void @ustr_setlen(ptr noundef %value32, i32 noundef 0, ptr noundef %31)
  %32 = load ptr, ptr %state.addr, align 8
  %buffer = getelementptr inbounds %struct.ParseState, ptr %32, i32 0, i32 2
  %33 = load ptr, ptr %buffer, align 8
  %34 = load ptr, ptr %state.addr, align 8
  %lookahead33 = getelementptr inbounds %struct.ParseState, ptr %34, i32 0, i32 0
  %35 = load i32, ptr %i, align 4
  %idxprom34 = zext i32 %35 to i64
  %arrayidx35 = getelementptr inbounds [4 x %struct.Lookahead], ptr %lookahead33, i64 0, i64 %idxprom34
  %value36 = getelementptr inbounds %struct.Lookahead, ptr %arrayidx35, i32 0, i32 1
  %36 = load ptr, ptr %state.addr, align 8
  %lookahead37 = getelementptr inbounds %struct.ParseState, ptr %36, i32 0, i32 0
  %37 = load i32, ptr %i, align 4
  %idxprom38 = zext i32 %37 to i64
  %arrayidx39 = getelementptr inbounds [4 x %struct.Lookahead], ptr %lookahead37, i64 0, i64 %idxprom38
  %line40 = getelementptr inbounds %struct.Lookahead, ptr %arrayidx39, i32 0, i32 3
  %38 = load ptr, ptr %state.addr, align 8
  %lookahead41 = getelementptr inbounds %struct.ParseState, ptr %38, i32 0, i32 0
  %39 = load i32, ptr %i, align 4
  %idxprom42 = zext i32 %39 to i64
  %arrayidx43 = getelementptr inbounds [4 x %struct.Lookahead], ptr %lookahead41, i64 0, i64 %idxprom42
  %comment44 = getelementptr inbounds %struct.Lookahead, ptr %arrayidx43, i32 0, i32 2
  %40 = load ptr, ptr %status.addr, align 8
  %call = call i32 @getNextToken(ptr noundef %33, ptr noundef %value36, ptr noundef %line40, ptr noundef %comment44, ptr noundef %40)
  %41 = load ptr, ptr %state.addr, align 8
  %lookahead45 = getelementptr inbounds %struct.ParseState, ptr %41, i32 0, i32 0
  %42 = load i32, ptr %i, align 4
  %idxprom46 = zext i32 %42 to i64
  %arrayidx47 = getelementptr inbounds [4 x %struct.Lookahead], ptr %lookahead45, i64 0, i64 %idxprom46
  %type48 = getelementptr inbounds %struct.Lookahead, ptr %arrayidx47, i32 0, i32 0
  store i32 %call, ptr %type48, align 8
  %43 = load i32, ptr %result, align 4
  ret i32 %43
}

; Function Attrs: mustprogress uwtable
define internal noundef ptr @_ZL14realParseTableP10ParseStateP13TableResourcePcjP10UErrorCode(ptr noundef %state, ptr noundef %table, ptr noundef %tag, i32 noundef %startline, ptr noundef %status) #1 {
entry:
  %retval = alloca ptr, align 8
  %state.addr = alloca ptr, align 8
  %table.addr = alloca ptr, align 8
  %tag.addr = alloca ptr, align 8
  %startline.addr = alloca i32, align 4
  %status.addr = alloca ptr, align 8
  %member = alloca ptr, align 8
  %tokenValue = alloca ptr, align 8
  %comment = alloca %struct.UString, align 8
  %token = alloca i32, align 4
  %subtag = alloca [1024 x i8], align 16
  %line = alloca i32, align 4
  %readToken = alloca i8, align 1
  store ptr %state, ptr %state.addr, align 8
  store ptr %table, ptr %table.addr, align 8
  store ptr %tag, ptr %tag.addr, align 8
  store i32 %startline, ptr %startline.addr, align 4
  store ptr %status, ptr %status.addr, align 8
  store ptr null, ptr %member, align 8
  store ptr null, ptr %tokenValue, align 8
  store i8 0, ptr %readToken, align 1
  %call = call signext i8 @isVerbose()
  %tobool = icmp ne i8 %call, 0
  br i1 %tobool, label %if.then, label %if.end

if.then:                                          ; preds = %entry
  %0 = load ptr, ptr %tag.addr, align 8
  %cmp = icmp eq ptr %0, null
  br i1 %cmp, label %cond.true, label %cond.false

cond.true:                                        ; preds = %if.then
  br label %cond.end

cond.false:                                       ; preds = %if.then
  %1 = load ptr, ptr %tag.addr, align 8
  br label %cond.end

cond.end:                                         ; preds = %cond.false, %cond.true
  %cond = phi ptr [ @.str.29, %cond.true ], [ %1, %cond.false ]
  %2 = load i32, ptr %startline.addr, align 4
  %call1 = call i32 (ptr, ...) @printf(ptr noundef @.str.133, ptr noundef %cond, i32 noundef %2)
  br label %if.end

if.end:                                           ; preds = %cond.end, %entry
  br label %for.cond

for.cond:                                         ; preds = %if.end42, %if.end
  call void @ustr_init(ptr noundef %comment)
  %3 = load ptr, ptr %state.addr, align 8
  %4 = load ptr, ptr %status.addr, align 8
  %call2 = call noundef i32 @_ZL8getTokenP10ParseStatePP7UStringS2_PjP10UErrorCode(ptr noundef %3, ptr noundef %tokenValue, ptr noundef %comment, ptr noundef %line, ptr noundef %4)
  store i32 %call2, ptr %token, align 4
  %5 = load i32, ptr %token, align 4
  %cmp3 = icmp eq i32 %5, 2
  br i1 %cmp3, label %if.then4, label %if.end10

if.then4:                                         ; preds = %for.cond
  %6 = load i8, ptr %readToken, align 1
  %tobool5 = icmp ne i8 %6, 0
  br i1 %tobool5, label %if.end9, label %land.lhs.true

land.lhs.true:                                    ; preds = %if.then4
  %call6 = call signext i8 @isVerbose()
  %tobool7 = icmp ne i8 %call6, 0
  br i1 %tobool7, label %if.then8, label %if.end9

if.then8:                                         ; preds = %land.lhs.true
  %7 = load i32, ptr %startline.addr, align 4
  call void (i32, ptr, ...) @warning(i32 noundef %7, ptr noundef @.str.134)
  br label %if.end9

if.end9:                                          ; preds = %if.then8, %land.lhs.true, %if.then4
  %8 = load ptr, ptr %table.addr, align 8
  store ptr %8, ptr %retval, align 8
  br label %return

if.end10:                                         ; preds = %for.cond
  %9 = load i32, ptr %token, align 4
  %cmp11 = icmp ne i32 %9, 0
  br i1 %cmp11, label %if.then12, label %if.end16

if.then12:                                        ; preds = %if.end10
  %10 = load ptr, ptr %status.addr, align 8
  store i32 3, ptr %10, align 4
  %11 = load i32, ptr %token, align 4
  %cmp13 = icmp eq i32 %11, 5
  br i1 %cmp13, label %if.then14, label %if.else

if.then14:                                        ; preds = %if.then12
  %12 = load i32, ptr %startline.addr, align 4
  call void (i32, ptr, ...) @error(i32 noundef %12, ptr noundef @.str.43)
  br label %if.end15

if.else:                                          ; preds = %if.then12
  %13 = load i32, ptr %line, align 4
  %14 = load i32, ptr %token, align 4
  %idxprom = zext i32 %14 to i64
  %arrayidx = getelementptr inbounds [7 x ptr], ptr @tokenNames, i64 0, i64 %idxprom
  %15 = load ptr, ptr %arrayidx, align 8
  call void (i32, ptr, ...) @error(i32 noundef %13, ptr noundef @.str.135, ptr noundef %15)
  br label %if.end15

if.end15:                                         ; preds = %if.else, %if.then14
  store ptr null, ptr %retval, align 8
  br label %return

if.end16:                                         ; preds = %if.end10
  %16 = load ptr, ptr %tokenValue, align 8
  %fChars = getelementptr inbounds %struct.UString, ptr %16, i32 0, i32 0
  %17 = load ptr, ptr %fChars, align 8
  %call17 = call signext i8 @uprv_isInvariantUString_75(ptr noundef %17, i32 noundef -1)
  %tobool18 = icmp ne i8 %call17, 0
  br i1 %tobool18, label %if.then19, label %if.else23

if.then19:                                        ; preds = %if.end16
  %18 = load ptr, ptr %tokenValue, align 8
  %fChars20 = getelementptr inbounds %struct.UString, ptr %18, i32 0, i32 0
  %19 = load ptr, ptr %fChars20, align 8
  %arraydecay = getelementptr inbounds [1024 x i8], ptr %subtag, i64 0, i64 0
  %20 = load ptr, ptr %tokenValue, align 8
  %fChars21 = getelementptr inbounds %struct.UString, ptr %20, i32 0, i32 0
  %21 = load ptr, ptr %fChars21, align 8
  %call22 = call i32 @u_strlen_75(ptr noundef %21)
  %add = add nsw i32 %call22, 1
  call void @u_UCharsToChars_75(ptr noundef %19, ptr noundef %arraydecay, i32 noundef %add)
  br label %if.end24

if.else23:                                        ; preds = %if.end16
  %22 = load ptr, ptr %status.addr, align 8
  store i32 3, ptr %22, align 4
  %23 = load i32, ptr %line, align 4
  call void (i32, ptr, ...) @error(i32 noundef %23, ptr noundef @.str.136)
  store ptr null, ptr %retval, align 8
  br label %return

if.end24:                                         ; preds = %if.then19
  %24 = load ptr, ptr %status.addr, align 8
  %25 = load i32, ptr %24, align 4
  %call25 = call noundef signext i8 @_ZL9U_FAILURE10UErrorCode(i32 noundef %25)
  %tobool26 = icmp ne i8 %call25, 0
  br i1 %tobool26, label %if.then27, label %if.end29

if.then27:                                        ; preds = %if.end24
  %26 = load i32, ptr %line, align 4
  %27 = load ptr, ptr %status.addr, align 8
  %28 = load i32, ptr %27, align 4
  %call28 = call ptr @u_errorName_75(i32 noundef %28)
  call void (i32, ptr, ...) @error(i32 noundef %26, ptr noundef @.str.137, ptr noundef %call28)
  store ptr null, ptr %retval, align 8
  br label %return

if.end29:                                         ; preds = %if.end24
  %29 = load ptr, ptr %state.addr, align 8
  %arraydecay30 = getelementptr inbounds [1024 x i8], ptr %subtag, i64 0, i64 0
  %30 = load ptr, ptr %status.addr, align 8
  %call31 = call noundef ptr @_ZL13parseResourceP10ParseStatePcPK7UStringP10UErrorCode(ptr noundef %29, ptr noundef %arraydecay30, ptr noundef %comment, ptr noundef %30)
  store ptr %call31, ptr %member, align 8
  %31 = load ptr, ptr %member, align 8
  %cmp32 = icmp eq ptr %31, null
  br i1 %cmp32, label %if.then35, label %lor.lhs.false

lor.lhs.false:                                    ; preds = %if.end29
  %32 = load ptr, ptr %status.addr, align 8
  %33 = load i32, ptr %32, align 4
  %call33 = call noundef signext i8 @_ZL9U_FAILURE10UErrorCode(i32 noundef %33)
  %tobool34 = icmp ne i8 %call33, 0
  br i1 %tobool34, label %if.then35, label %if.end37

if.then35:                                        ; preds = %lor.lhs.false, %if.end29
  %34 = load i32, ptr %line, align 4
  %35 = load ptr, ptr %status.addr, align 8
  %36 = load i32, ptr %35, align 4
  %call36 = call ptr @u_errorName_75(i32 noundef %36)
  call void (i32, ptr, ...) @error(i32 noundef %34, ptr noundef @.str.138, ptr noundef %call36)
  store ptr null, ptr %retval, align 8
  br label %return

if.end37:                                         ; preds = %lor.lhs.false
  %37 = load ptr, ptr %table.addr, align 8
  %38 = load ptr, ptr %member, align 8
  %39 = load i32, ptr %line, align 4
  %40 = load ptr, ptr %status.addr, align 8
  call void @_ZN13TableResource3addEP9SResourceiR10UErrorCode(ptr noundef nonnull align 8 dereferenceable(88) %37, ptr noundef %38, i32 noundef %39, ptr noundef nonnull align 4 dereferenceable(4) %40)
  %41 = load ptr, ptr %status.addr, align 8
  %42 = load i32, ptr %41, align 4
  %call38 = call noundef signext i8 @_ZL9U_FAILURE10UErrorCode(i32 noundef %42)
  %tobool39 = icmp ne i8 %call38, 0
  br i1 %tobool39, label %if.then40, label %if.end42

if.then40:                                        ; preds = %if.end37
  %43 = load i32, ptr %line, align 4
  %44 = load ptr, ptr %status.addr, align 8
  %45 = load i32, ptr %44, align 4
  %call41 = call ptr @u_errorName_75(i32 noundef %45)
  call void (i32, ptr, ...) @error(i32 noundef %43, ptr noundef @.str.139, ptr noundef %call41)
  store ptr null, ptr %retval, align 8
  br label %return

if.end42:                                         ; preds = %if.end37
  store i8 1, ptr %readToken, align 1
  call void @ustr_deinit(ptr noundef %comment)
  br label %for.cond, !llvm.loop !9

return:                                           ; preds = %if.then40, %if.then35, %if.then27, %if.else23, %if.end15, %if.end9
  %46 = load ptr, ptr %retval, align 8
  ret ptr %46
}