; Function Attrs: mustprogress uwtable
define internal fastcc noundef ptr @_ZL14realParseTableP10ParseStateP13TableResourcePcjP10UErrorCode(ptr noundef %state, ptr noundef %table, ptr noundef %tag, i32 noundef %startline, ptr noundef %status) unnamed_addr #1 {
entry:
  %comment = alloca %struct.UString, align 8
  %subtag = alloca [1024 x i8], align 16
  %call = tail call signext i8 @isVerbose()
  %tobool.not = icmp eq i8 %call, 0
  br i1 %tobool.not, label %if.end, label %if.then

if.then:                                          ; preds = %entry
  %cmp = icmp eq ptr %tag, null
  %cond = select i1 %cmp, ptr @.str.29, ptr %tag
  %call1 = tail call i32 (ptr, ...) @printf(ptr noundef nonnull dereferenceable(1) @.str.133, ptr noundef nonnull %cond, i32 noundef %startline)
  br label %if.end

if.end:                                           ; preds = %if.then, %entry
  %lookaheadPosition.i = getelementptr inbounds i8, ptr %state, i64 192
  %buffer.i = getelementptr inbounds i8, ptr %state, i64 200
  br label %for.cond

for.cond:                                         ; preds = %if.end42, %if.end
  %tobool5.not = phi i1 [ true, %if.end ], [ false, %if.end42 ]
  call void @ustr_init(ptr noundef nonnull %comment)
  %0 = load i32, ptr %lookaheadPosition.i, align 8
  %idxprom.i = zext i32 %0 to i64
  %arrayidx.i = getelementptr inbounds [4 x %struct.Lookahead], ptr %state, i64 0, i64 %idxprom.i
  %1 = load i32, ptr %arrayidx.i, align 8
  %value.i = getelementptr inbounds i8, ptr %arrayidx.i, i64 8
  %line.i = getelementptr inbounds [4 x %struct.Lookahead], ptr %state, i64 0, i64 %idxprom.i, i32 3
  %2 = load i32, ptr %line.i, align 8
  %comment18.i = getelementptr inbounds [4 x %struct.Lookahead], ptr %state, i64 0, i64 %idxprom.i, i32 2
  call void @ustr_cpy(ptr noundef nonnull %comment, ptr noundef nonnull %comment18.i, ptr noundef %status)
  %.pre.i = load i32, ptr %lookaheadPosition.i, align 8
  %add.i = add i32 %.pre.i, 3
  %rem.i = and i32 %add.i, 3
  %add22.i = add i32 %.pre.i, 1
  %rem23.i = and i32 %add22.i, 3
  store i32 %rem23.i, ptr %lookaheadPosition.i, align 8
  %idxprom26.i = zext nneg i32 %rem.i to i64
  %arrayidx27.i = getelementptr inbounds [4 x %struct.Lookahead], ptr %state, i64 0, i64 %idxprom26.i
  %comment28.i = getelementptr inbounds i8, ptr %arrayidx27.i, i64 24
  call void @ustr_setlen(ptr noundef nonnull %comment28.i, i32 noundef 0, ptr noundef %status)
  %value32.i = getelementptr inbounds i8, ptr %arrayidx27.i, i64 8
  call void @ustr_setlen(ptr noundef nonnull %value32.i, i32 noundef 0, ptr noundef %status)
  %3 = load ptr, ptr %buffer.i, align 8
  %line40.i = getelementptr inbounds i8, ptr %arrayidx27.i, i64 40
  %call.i = call i32 @getNextToken(ptr noundef %3, ptr noundef nonnull %value32.i, ptr noundef nonnull %line40.i, ptr noundef nonnull %comment28.i, ptr noundef %status)
  store i32 %call.i, ptr %arrayidx27.i, align 8
  switch i32 %1, label %if.then12 [
    i32 2, label %if.then4
    i32 0, label %if.end16
  ]

if.then4:                                         ; preds = %for.cond
  br i1 %tobool5.not, label %land.lhs.true, label %return

land.lhs.true:                                    ; preds = %if.then4
  %call6 = call signext i8 @isVerbose()
  %tobool7.not = icmp eq i8 %call6, 0
  br i1 %tobool7.not, label %return, label %if.then8

if.then8:                                         ; preds = %land.lhs.true
  call void (i32, ptr, ...) @warning(i32 noundef %startline, ptr noundef nonnull @.str.134)
  br label %return

if.then12:                                        ; preds = %for.cond
  store i32 3, ptr %status, align 4
  %cmp13 = icmp eq i32 %1, 5
  br i1 %cmp13, label %if.then14, label %if.else

if.then14:                                        ; preds = %if.then12
  call void (i32, ptr, ...) @error(i32 noundef %startline, ptr noundef nonnull @.str.43)
  br label %return

if.else:                                          ; preds = %if.then12
  %idxprom = zext i32 %1 to i64
  %arrayidx = getelementptr inbounds [7 x ptr], ptr @tokenNames, i64 0, i64 %idxprom
  %4 = load ptr, ptr %arrayidx, align 8
  call void (i32, ptr, ...) @error(i32 noundef %2, ptr noundef nonnull @.str.135, ptr noundef %4)
  br label %return

if.end16:                                         ; preds = %for.cond
  %5 = load ptr, ptr %value.i, align 8
  %call17 = call signext i8 @uprv_isInvariantUString_75(ptr noundef %5, i32 noundef -1)
  %tobool18.not = icmp eq i8 %call17, 0
  br i1 %tobool18.not, label %if.else23, label %if.then19

if.then19:                                        ; preds = %if.end16
  %6 = load ptr, ptr %value.i, align 8
  %call22 = call i32 @u_strlen_75(ptr noundef %6)
  %add = add nsw i32 %call22, 1
  call void @u_UCharsToChars_75(ptr noundef %6, ptr noundef nonnull %subtag, i32 noundef %add)
  %7 = load i32, ptr %status, align 4
  %cmp.i = icmp slt i32 %7, 1
  br i1 %cmp.i, label %if.end29, label %if.then27

if.else23:                                        ; preds = %if.end16
  store i32 3, ptr %status, align 4
  call void (i32, ptr, ...) @error(i32 noundef %2, ptr noundef nonnull @.str.136)
  br label %return

if.then27:                                        ; preds = %if.then19
  %call28 = call ptr @u_errorName_75(i32 noundef %7)
  call void (i32, ptr, ...) @error(i32 noundef %2, ptr noundef nonnull @.str.137, ptr noundef %call28)
  br label %return

if.end29:                                         ; preds = %if.then19
  %call31 = call fastcc noundef ptr @_ZL13parseResourceP10ParseStatePcPK7UStringP10UErrorCode(ptr noundef nonnull %state, ptr noundef nonnull %subtag, ptr noundef nonnull %comment, ptr noundef nonnull %status)
  %cmp32 = icmp ne ptr %call31, null
  %.pre = load i32, ptr %status, align 4
  %cmp.i20 = icmp slt i32 %.pre, 1
  %or.cond = select i1 %cmp32, i1 %cmp.i20, i1 false
  br i1 %or.cond, label %if.end37, label %if.then35

if.then35:                                        ; preds = %if.end29
  %call36 = call ptr @u_errorName_75(i32 noundef %.pre)
  call void (i32, ptr, ...) @error(i32 noundef %2, ptr noundef nonnull @.str.138, ptr noundef %call36)
  br label %return

if.end37:                                         ; preds = %if.end29
  call void @_ZN13TableResource3addEP9SResourceiR10UErrorCode(ptr noundef nonnull align 8 dereferenceable(88) %table, ptr noundef nonnull %call31, i32 noundef %2, ptr noundef nonnull align 4 dereferenceable(4) %status)
  %8 = load i32, ptr %status, align 4
  %cmp.i22 = icmp slt i32 %8, 1
  br i1 %cmp.i22, label %if.end42, label %if.then40

if.then40:                                        ; preds = %if.end37
  %call41 = call ptr @u_errorName_75(i32 noundef %8)
  call void (i32, ptr, ...) @error(i32 noundef %2, ptr noundef nonnull @.str.139, ptr noundef %call41)
  br label %return

if.end42:                                         ; preds = %if.end37
  call void @ustr_deinit(ptr noundef nonnull %comment)
  br label %for.cond, !llvm.loop !10

return:                                           ; preds = %if.then14, %if.else, %if.then4, %land.lhs.true, %if.then8, %if.then40, %if.then35, %if.then27, %if.else23
  %retval.0 = phi ptr [ null, %if.then27 ], [ null, %if.then35 ], [ null, %if.then40 ], [ null, %if.else23 ], [ %table, %if.then8 ], [ %table, %land.lhs.true ], [ %table, %if.then4 ], [ null, %if.else ], [ null, %if.then14 ]
  ret ptr %retval.0
}